target datalayout = "e-m:e-p270:32:32-p271:32:32-p272:64:64-i64:64-i128:128-f80:128-n8:16:32:64-S128"
target triple = "x86_64-pc-linux-gnu"

%struct.ObjectAddress = type { i32, i32, i32 }
%struct.HeapTupleData = type { i32, %struct.ItemPointerData, i32, ptr }
%struct.ItemPointerData = type { %struct.BlockIdData, i16 }
%struct.BlockIdData = type { i16, i16 }
%struct.RelationData = type { %struct.RelFileLocator, ptr, i32, i32, i8, i8, i8, i8, i8, i32, i32, i32, i32, ptr, ptr, i32, %struct.LockInfoData, ptr, ptr, ptr, ptr, ptr, i8, ptr, ptr, ptr, ptr, ptr, ptr, i32, ptr, i8, ptr, ptr, i32, i8, i32, ptr, i8, ptr, ptr, ptr, ptr, ptr, ptr, ptr, i32, ptr, ptr, ptr, ptr, ptr, ptr, ptr, ptr, ptr, ptr, ptr, ptr, ptr, ptr, ptr, ptr, ptr, ptr, ptr, i32, i8, ptr }
%struct.RelFileLocator = type { i32, i32, i32 }
%struct.LockInfoData = type { %struct.LockRelId }
%struct.LockRelId = type { i32, i32 }
%struct.ForeignDataWrapper = type { i32, i32, ptr, i32, i32, ptr }
%struct.RoleSpec = type { i32, i32, ptr, i32 }
%struct.ForeignServer = type { i32, i32, i32, ptr, ptr, ptr, ptr }
%struct.AlterUserMappingStmt = type { i32, ptr, ptr, ptr }

@.str.1 = private unnamed_addr constant [14 x i8] c"foreigncmds.c\00", align 1
@object_access_hook = external global ptr, align 8
@.str.18 = private unnamed_addr constant [7 x i8] c"public\00", align 1
@.str.20 = private unnamed_addr constant [53 x i8] c"user mapping for \22%s\22 does not exist for server \22%s\22\00", align 1
@__func__.AlterUserMapping = private unnamed_addr constant [17 x i8] c"AlterUserMapping\00", align 1
@.str.21 = private unnamed_addr constant [40 x i8] c"cache lookup failed for user mapping %u\00", align 1

; Function Attrs: inlinehint nounwind uwtable
define internal ptr @DatumGetPointer(i64 noundef %0) #6 {
  %2 = alloca i64, align 8
  store i64 %0, ptr %2, align 8
  %3 = load i64, ptr %2, align 8
  %4 = inttoptr i64 %3 to ptr
  ret ptr %4
}

; Function Attrs: inlinehint nounwind uwtable
define internal i64 @PointerGetDatum(ptr noundef %0) #6 {
  %2 = alloca ptr, align 8
  store ptr %0, ptr %2, align 8
  %3 = load ptr, ptr %2, align 8
  %4 = ptrtoint ptr %3 to i64
  ret i64 %4
}

; Function Attrs: nounwind uwtable
define internal void @user_mapping_ddl_aclcheck(i32 noundef %0, i32 noundef %1, ptr noundef %2) #0 {
  %4 = alloca i32, align 4
  %5 = alloca i32, align 4
  %6 = alloca ptr, align 8
  %7 = alloca i32, align 4
  %8 = alloca i32, align 4
  store i32 %0, ptr %4, align 4
  store i32 %1, ptr %5, align 4
  store ptr %2, ptr %6, align 8
  call void @llvm.lifetime.start.p0(i64 4, ptr %7) #9
  %9 = call i32 @GetUserId()
  store i32 %9, ptr %7, align 4
  %10 = load i32, ptr %5, align 4
  %11 = load i32, ptr %7, align 4
  %12 = call zeroext i1 @object_ownercheck(i32 noundef 1417, i32 noundef %10, i32 noundef %11)
  br i1 %12, label %30, label %13

13:                                               ; preds = %3
  %14 = load i32, ptr %4, align 4
  %15 = load i32, ptr %7, align 4
  %16 = icmp eq i32 %14, %15
  br i1 %16, label %17, label %27

17:                                               ; preds = %13
  call void @llvm.lifetime.start.p0(i64 4, ptr %8) #9
  %18 = load i32, ptr %5, align 4
  %19 = load i32, ptr %7, align 4
  %20 = call i32 @object_aclcheck(i32 noundef 1417, i32 noundef %18, i32 noundef %19, i64 noundef 256)
  store i32 %20, ptr %8, align 4
  %21 = load i32, ptr %8, align 4
  %22 = icmp ne i32 %21, 0
  br i1 %22, label %23, label %26

23:                                               ; preds = %17
  %24 = load i32, ptr %8, align 4
  %25 = load ptr, ptr %6, align 8
  call void @aclcheck_error(i32 noundef %24, i32 noundef 17, ptr noundef %25)
  br label %26

26:                                               ; preds = %23, %17
  call void @llvm.lifetime.end.p0(i64 4, ptr %8) #9
  br label %29

27:                                               ; preds = %13
  %28 = load ptr, ptr %6, align 8
  call void @aclcheck_error(i32 noundef 2, i32 noundef 17, ptr noundef %28)
  br label %29

29:                                               ; preds = %27, %26
  br label %30

30:                                               ; preds = %29, %3
  call void @llvm.lifetime.end.p0(i64 4, ptr %7) #9
  ret void
}

; Function Attrs: inlinehint nounwind uwtable
define internal i64 @ObjectIdGetDatum(i32 noundef %0) #6 {
  %2 = alloca i32, align 4
  store i32 %0, ptr %2, align 4
  %3 = load i32, ptr %2, align 4
  %4 = zext i32 %3 to i64
  ret i64 %4
}

; Function Attrs: nounwind uwtable
define dso_local { i64, i32 } @AlterUserMapping(ptr noundef %0) #0 {
  %2 = alloca %struct.ObjectAddress, align 4
  %3 = alloca ptr, align 8
  %4 = alloca ptr, align 8
  %5 = alloca ptr, align 8
  %6 = alloca [4 x i64], align 16
  %7 = alloca [4 x i8], align 1
  %8 = alloca [4 x i8], align 1
  %9 = alloca i32, align 4
  %10 = alloca i32, align 4
  %11 = alloca ptr, align 8
  %12 = alloca ptr, align 8
  %13 = alloca ptr, align 8
  %14 = alloca i64, align 8
  %15 = alloca i8, align 1
  %16 = alloca { i64, i32 }, align 8
  store ptr %0, ptr %3, align 8
  call void @llvm.lifetime.start.p0(i64 8, ptr %4) #9
  call void @llvm.lifetime.start.p0(i64 8, ptr %5) #9
  call void @llvm.lifetime.start.p0(i64 32, ptr %6) #9
  call void @llvm.lifetime.start.p0(i64 4, ptr %7) #9
  call void @llvm.lifetime.start.p0(i64 4, ptr %8) #9
  call void @llvm.lifetime.start.p0(i64 4, ptr %9) #9
  call void @llvm.lifetime.start.p0(i64 4, ptr %10) #9
  call void @llvm.lifetime.start.p0(i64 8, ptr %11) #9
  call void @llvm.lifetime.start.p0(i64 8, ptr %12) #9
  %17 = load ptr, ptr %3, align 8
  %18 = getelementptr inbounds nuw %struct.AlterUserMappingStmt, ptr %17, i32 0, i32 1
  %19 = load ptr, ptr %18, align 8
  store ptr %19, ptr %12, align 8
  %20 = call ptr @table_open(i32 noundef 1418, i32 noundef 3)
  store ptr %20, ptr %4, align 8
  %21 = load ptr, ptr %12, align 8
  %22 = getelementptr inbounds nuw %struct.RoleSpec, ptr %21, i32 0, i32 1
  %23 = load i32, ptr %22, align 4
  %24 = icmp eq i32 %23, 4
  br i1 %24, label %25, label %26

25:                                               ; preds = %1
  store i32 0, ptr %9, align 4
  br label %31

26:                                               ; preds = %1
  %27 = load ptr, ptr %3, align 8
  %28 = getelementptr inbounds nuw %struct.AlterUserMappingStmt, ptr %27, i32 0, i32 1
  %29 = load ptr, ptr %28, align 8
  %30 = call i32 @get_rolespec_oid(ptr noundef %29, i1 noundef zeroext false)
  store i32 %30, ptr %9, align 4
  br label %31

31:                                               ; preds = %26, %25
  %32 = load ptr, ptr %3, align 8
  %33 = getelementptr inbounds nuw %struct.AlterUserMappingStmt, ptr %32, i32 0, i32 2
  %34 = load ptr, ptr %33, align 8
  %35 = call ptr @GetForeignServerByName(ptr noundef %34, i1 noundef zeroext false)
  store ptr %35, ptr %11, align 8
  %36 = load i32, ptr %9, align 4
  %37 = call i64 @ObjectIdGetDatum(i32 noundef %36)
  %38 = load ptr, ptr %11, align 8
  %39 = getelementptr inbounds nuw %struct.ForeignServer, ptr %38, i32 0, i32 0
  %40 = load i32, ptr %39, align 8
  %41 = call i64 @ObjectIdGetDatum(i32 noundef %40)
  %42 = call i32 @GetSysCacheOid(i32 noundef 84, i16 noundef signext 1, i64 noundef %37, i64 noundef %41, i64 noundef 0, i64 noundef 0)
  store i32 %42, ptr %10, align 4
  %43 = load i32, ptr %10, align 4
  %44 = icmp ne i32 %43, 0
  br i1 %44, label %68, label %45

45:                                               ; preds = %31
  br label %46

46:                                               ; preds = %45
  br i1 true, label %47, label %49

47:                                               ; preds = %46
  %48 = call zeroext i1 @errstart_cold(i32 noundef 21, ptr noundef null) #11
  br i1 %48, label %51, label %65

49:                                               ; preds = %46
  %50 = call zeroext i1 @errstart(i32 noundef 21, ptr noundef null)
  br i1 %50, label %51, label %65

51:                                               ; preds = %49, %47
  %52 = call i32 @errcode(i32 noundef 67137668)
  %53 = load i32, ptr %9, align 4
  %54 = icmp ne i32 %53, 0
  br i1 %54, label %55, label %58

55:                                               ; preds = %51
  %56 = load i32, ptr %9, align 4
  %57 = call ptr @GetUserNameFromId(i32 noundef %56, i1 noundef zeroext false)
  br label %59

58:                                               ; preds = %51
  br label %59

59:                                               ; preds = %58, %55
  %60 = phi ptr [ %57, %55 ], [ @.str.18, %58 ]
  %61 = load ptr, ptr %3, align 8
  %62 = getelementptr inbounds nuw %struct.AlterUserMappingStmt, ptr %61, i32 0, i32 2
  %63 = load ptr, ptr %62, align 8
  %64 = call i32 (ptr, ...) @errmsg(ptr noundef @.str.20, ptr noundef %60, ptr noundef %63)
  call void @errfinish(ptr noundef @.str.1, i32 noundef 1255, ptr noundef @__func__.AlterUserMapping)
  br label %65

65:                                               ; preds = %59, %49, %47
  unreachable

66:                                               ; No predecessors!
  br label %67

67:                                               ; preds = %66
  br label %68

68:                                               ; preds = %67, %31
  %69 = load i32, ptr %9, align 4
  %70 = load ptr, ptr %11, align 8
  %71 = getelementptr inbounds nuw %struct.ForeignServer, ptr %70, i32 0, i32 0
  %72 = load i32, ptr %71, align 8
  %73 = load ptr, ptr %3, align 8
  %74 = getelementptr inbounds nuw %struct.AlterUserMappingStmt, ptr %73, i32 0, i32 2
  %75 = load ptr, ptr %74, align 8
  call void @user_mapping_ddl_aclcheck(i32 noundef %69, i32 noundef %72, ptr noundef %75)
  %76 = load i32, ptr %10, align 4
  %77 = call i64 @ObjectIdGetDatum(i32 noundef %76)
  %78 = call ptr @SearchSysCacheCopy(i32 noundef 83, i64 noundef %77, i64 noundef 0, i64 noundef 0, i64 noundef 0)
  store ptr %78, ptr %5, align 8
  %79 = load ptr, ptr %5, align 8
  %80 = icmp ne ptr %79, null
  br i1 %80, label %93, label %81

81:                                               ; preds = %68
  br label %82

82:                                               ; preds = %81
  br i1 true, label %83, label %85

83:                                               ; preds = %82
  %84 = call zeroext i1 @errstart_cold(i32 noundef 21, ptr noundef null) #11
  br i1 %84, label %87, label %90

85:                                               ; preds = %82
  %86 = call zeroext i1 @errstart(i32 noundef 21, ptr noundef null)
  br i1 %86, label %87, label %90

87:                                               ; preds = %85, %83
  %88 = load i32, ptr %10, align 4
  %89 = call i32 (ptr, ...) @errmsg_internal(ptr noundef @.str.21, i32 noundef %88)
  call void @errfinish(ptr noundef @.str.1, i32 noundef 1262, ptr noundef @__func__.AlterUserMapping)
  br label %90

90:                                               ; preds = %87, %85, %83
  unreachable

91:                                               ; No predecessors!
  br label %92

92:                                               ; preds = %91
  br label %93

93:                                               ; preds = %92, %68
  %94 = getelementptr inbounds [4 x i64], ptr %6, i64 0, i64 0
  call void @llvm.memset.p0.i64(ptr align 16 %94, i8 0, i64 32, i1 false)
  %95 = getelementptr inbounds [4 x i8], ptr %7, i64 0, i64 0
  call void @llvm.memset.p0.i64(ptr align 1 %95, i8 0, i64 4, i1 false)
  %96 = getelementptr inbounds [4 x i8], ptr %8, i64 0, i64 0
  call void @llvm.memset.p0.i64(ptr align 1 %96, i8 0, i64 4, i1 false)
  %97 = load ptr, ptr %3, align 8
  %98 = getelementptr inbounds nuw %struct.AlterUserMappingStmt, ptr %97, i32 0, i32 3
  %99 = load ptr, ptr %98, align 8
  %100 = icmp ne ptr %99, null
  br i1 %100, label %101, label %131

101:                                              ; preds = %93
  call void @llvm.lifetime.start.p0(i64 8, ptr %13) #9
  call void @llvm.lifetime.start.p0(i64 8, ptr %14) #9
  call void @llvm.lifetime.start.p0(i64 1, ptr %15) #9
  %102 = load ptr, ptr %11, align 8
  %103 = getelementptr inbounds nuw %struct.ForeignServer, ptr %102, i32 0, i32 1
  %104 = load i32, ptr %103, align 4
  %105 = call ptr @GetForeignDataWrapper(i32 noundef %104)
  store ptr %105, ptr %13, align 8
  %106 = load ptr, ptr %5, align 8
  %107 = call i64 @SysCacheGetAttr(i32 noundef 84, ptr noundef %106, i16 noundef signext 4, ptr noundef %15)
  store i64 %107, ptr %14, align 8
  %108 = load i8, ptr %15, align 1, !range !8, !noundef !9
  %109 = trunc i8 %108 to i1
  br i1 %109, label %110, label %112

110:                                              ; preds = %101
  %111 = call i64 @PointerGetDatum(ptr noundef null)
  store i64 %111, ptr %14, align 8
  br label %112

112:                                              ; preds = %110, %101
  %113 = load i64, ptr %14, align 8
  %114 = load ptr, ptr %3, align 8
  %115 = getelementptr inbounds nuw %struct.AlterUserMappingStmt, ptr %114, i32 0, i32 3
  %116 = load ptr, ptr %115, align 8
  %117 = load ptr, ptr %13, align 8
  %118 = getelementptr inbounds nuw %struct.ForeignDataWrapper, ptr %117, i32 0, i32 4
  %119 = load i32, ptr %118, align 4
  %120 = call i64 @transformGenericOptions(i32 noundef 1418, i64 noundef %113, ptr noundef %116, i32 noundef %119)
  store i64 %120, ptr %14, align 8
  %121 = load i64, ptr %14, align 8
  %122 = call ptr @DatumGetPointer(i64 noundef %121)
  %123 = icmp ne ptr %122, null
  br i1 %123, label %124, label %127

124:                                              ; preds = %112
  %125 = load i64, ptr %14, align 8
  %126 = getelementptr inbounds [4 x i64], ptr %6, i64 0, i64 3
  store i64 %125, ptr %126, align 8
  br label %129

127:                                              ; preds = %112
  %128 = getelementptr inbounds [4 x i8], ptr %7, i64 0, i64 3
  store i8 1, ptr %128, align 1
  br label %129

129:                                              ; preds = %127, %124
  %130 = getelementptr inbounds [4 x i8], ptr %8, i64 0, i64 3
  store i8 1, ptr %130, align 1
  call void @llvm.lifetime.end.p0(i64 1, ptr %15) #9
  call void @llvm.lifetime.end.p0(i64 8, ptr %14) #9
  call void @llvm.lifetime.end.p0(i64 8, ptr %13) #9
  br label %131

131:                                              ; preds = %129, %93
  %132 = load ptr, ptr %5, align 8
  %133 = load ptr, ptr %4, align 8
  %134 = getelementptr inbounds nuw %struct.RelationData, ptr %133, i32 0, i32 14
  %135 = load ptr, ptr %134, align 8
  %136 = getelementptr inbounds [4 x i64], ptr %6, i64 0, i64 0
  %137 = getelementptr inbounds [4 x i8], ptr %7, i64 0, i64 0
  %138 = getelementptr inbounds [4 x i8], ptr %8, i64 0, i64 0
  %139 = call ptr @heap_modify_tuple(ptr noundef %132, ptr noundef %135, ptr noundef %136, ptr noundef %137, ptr noundef %138)
  store ptr %139, ptr %5, align 8
  %140 = load ptr, ptr %4, align 8
  %141 = load ptr, ptr %5, align 8
  %142 = getelementptr inbounds nuw %struct.HeapTupleData, ptr %141, i32 0, i32 1
  %143 = load ptr, ptr %5, align 8
  call void @CatalogTupleUpdate(ptr noundef %140, ptr noundef %142, ptr noundef %143)
  br label %144

144:                                              ; preds = %131
  %145 = load ptr, ptr @object_access_hook, align 8
  %146 = icmp ne ptr %145, null
  br i1 %146, label %147, label %149

147:                                              ; preds = %144
  %148 = load i32, ptr %10, align 4
  call void @RunObjectPostAlterHook(i32 noundef 1418, i32 noundef %148, i32 noundef 0, i32 noundef 0, i1 noundef zeroext false)
  br label %149

149:                                              ; preds = %147, %144
  br label %150

150:                                              ; preds = %149
  br label %151

151:                                              ; preds = %150
  br label %152

152:                                              ; preds = %151
  %153 = getelementptr inbounds nuw %struct.ObjectAddress, ptr %2, i32 0, i32 0
  store i32 1418, ptr %153, align 4
  %154 = load i32, ptr %10, align 4
  %155 = getelementptr inbounds nuw %struct.ObjectAddress, ptr %2, i32 0, i32 1
  store i32 %154, ptr %155, align 4
  %156 = getelementptr inbounds nuw %struct.ObjectAddress, ptr %2, i32 0, i32 2
  store i32 0, ptr %156, align 4
  br label %157

157:                                              ; preds = %152
  br label %158

158:                                              ; preds = %157
  %159 = load ptr, ptr %5, align 8
  call void @heap_freetuple(ptr noundef %159)
  %160 = load ptr, ptr %4, align 8
  call void @table_close(ptr noundef %160, i32 noundef 3)
  call void @llvm.lifetime.end.p0(i64 8, ptr %12) #9
  call void @llvm.lifetime.end.p0(i64 8, ptr %11) #9
  call void @llvm.lifetime.end.p0(i64 4, ptr %10) #9
  call void @llvm.lifetime.end.p0(i64 4, ptr %9) #9
  call void @llvm.lifetime.end.p0(i64 4, ptr %8) #9
  call void @llvm.lifetime.end.p0(i64 4, ptr %7) #9
  call void @llvm.lifetime.end.p0(i64 32, ptr %6) #9
  call void @llvm.lifetime.end.p0(i64 8, ptr %5) #9
  call void @llvm.lifetime.end.p0(i64 8, ptr %4) #9
  call void @llvm.memcpy.p0.p0.i64(ptr align 8 %16, ptr align 4 %2, i64 12, i1 false)
  %161 = load { i64, i32 }, ptr %16, align 8
  ret { i64, i32 } %161
}