; Function Attrs: nounwind uwtable
define dso_local { i64, i32 } @AlterUserMapping(ptr noundef readonly captures(none) %0) local_unnamed_addr #0 {
  %2 = alloca [4 x i64], align 16
  %3 = alloca [4 x i8], align 4
  %4 = alloca [4 x i8], align 4
  %5 = alloca i8, align 1
  call void @llvm.lifetime.start.p0(i64 32, ptr nonnull %2) #9
  call void @llvm.lifetime.start.p0(i64 4, ptr nonnull %3) #9
  call void @llvm.lifetime.start.p0(i64 4, ptr nonnull %4) #9
  %6 = getelementptr inbounds nuw i8, ptr %0, i64 8
  %7 = load ptr, ptr %6, align 8
  %8 = tail call ptr @table_open(i32 noundef 1418, i32 noundef 3) #9
  %9 = getelementptr inbounds nuw i8, ptr %7, i64 4
  %10 = load i32, ptr %9, align 4
  %11 = icmp eq i32 %10, 4
  br i1 %11, label %15, label %12

12:                                               ; preds = %1
  %13 = load ptr, ptr %6, align 8
  %14 = tail call i32 @get_rolespec_oid(ptr noundef %13, i1 noundef zeroext false) #9
  br label %15

15:                                               ; preds = %1, %12
  %.0 = phi i32 [ %14, %12 ], [ 0, %1 ]
  %16 = getelementptr inbounds nuw i8, ptr %0, i64 16
  %17 = load ptr, ptr %16, align 8
  %18 = tail call ptr @GetForeignServerByName(ptr noundef %17, i1 noundef zeroext false) #9
  %19 = zext i32 %.0 to i64
  %20 = load i32, ptr %18, align 8
  %21 = zext i32 %20 to i64
  %22 = tail call i32 @GetSysCacheOid(i32 noundef 84, i16 noundef signext 1, i64 noundef %19, i64 noundef %21, i64 noundef 0, i64 noundef 0) #9
  %.not = icmp eq i32 %22, 0
  br i1 %.not, label %23, label %32

23:                                               ; preds = %15
  %24 = tail call zeroext i1 @errstart_cold(i32 noundef 21, ptr noundef null) #11
  tail call void @llvm.assume(i1 %24)
  %25 = tail call i32 @errcode(i32 noundef 67137668) #9
  %.not37 = icmp eq i32 %.0, 0
  br i1 %.not37, label %28, label %26

26:                                               ; preds = %23
  %27 = tail call ptr @GetUserNameFromId(i32 noundef %.0, i1 noundef zeroext false) #9
  br label %28

28:                                               ; preds = %23, %26
  %29 = phi ptr [ %27, %26 ], [ @.str.18, %23 ]
  %30 = load ptr, ptr %16, align 8
  %31 = tail call i32 (ptr, ...) @errmsg(ptr noundef nonnull @.str.20, ptr noundef %29, ptr noundef %30) #9
  tail call void @errfinish(ptr noundef nonnull @.str.1, i32 noundef 1255, ptr noundef nonnull @__func__.AlterUserMapping) #9
  unreachable

32:                                               ; preds = %15
  %33 = load i32, ptr %18, align 8
  %34 = load ptr, ptr %16, align 8
  %35 = tail call i32 @GetUserId() #9
  %36 = tail call zeroext i1 @object_ownercheck(i32 noundef 1417, i32 noundef %33, i32 noundef %35) #9
  br i1 %36, label %user_mapping_ddl_aclcheck.exit, label %37

37:                                               ; preds = %32
  %38 = icmp eq i32 %.0, %35
  br i1 %38, label %39, label %.sink.split.i

39:                                               ; preds = %37
  %40 = tail call i32 @object_aclcheck(i32 noundef 1417, i32 noundef %33, i32 noundef %.0, i64 noundef 256) #9
  %.not.i = icmp eq i32 %40, 0
  br i1 %.not.i, label %user_mapping_ddl_aclcheck.exit, label %.sink.split.i

.sink.split.i:                                    ; preds = %39, %37
  %.sink.i = phi i32 [ %40, %39 ], [ 2, %37 ]
  tail call void @aclcheck_error(i32 noundef %.sink.i, i32 noundef 17, ptr noundef %34) #9
  br label %user_mapping_ddl_aclcheck.exit

user_mapping_ddl_aclcheck.exit:                   ; preds = %32, %39, %.sink.split.i
  %41 = zext i32 %22 to i64
  %42 = tail call ptr @SearchSysCacheCopy(i32 noundef 83, i64 noundef %41, i64 noundef 0, i64 noundef 0, i64 noundef 0) #9
  %.not38 = icmp eq ptr %42, null
  br i1 %.not38, label %43, label %46

43:                                               ; preds = %user_mapping_ddl_aclcheck.exit
  %44 = tail call zeroext i1 @errstart_cold(i32 noundef 21, ptr noundef null) #11
  tail call void @llvm.assume(i1 %44)
  %45 = tail call i32 (ptr, ...) @errmsg_internal(ptr noundef nonnull @.str.21, i32 noundef %22) #9
  tail call void @errfinish(ptr noundef nonnull @.str.1, i32 noundef 1262, ptr noundef nonnull @__func__.AlterUserMapping) #9
  unreachable

46:                                               ; preds = %user_mapping_ddl_aclcheck.exit
  call void @llvm.memset.p0.i64(ptr noundef nonnull align 16 dereferenceable(32) %2, i8 0, i64 32, i1 false)
  store i32 0, ptr %3, align 4
  store i32 0, ptr %4, align 4
  %47 = getelementptr inbounds nuw i8, ptr %0, i64 24
  %48 = load ptr, ptr %47, align 8
  %.not39 = icmp eq ptr %48, null
  br i1 %.not39, label %66, label %49

49:                                               ; preds = %46
  call void @llvm.lifetime.start.p0(i64 1, ptr nonnull %5) #9
  %50 = getelementptr inbounds nuw i8, ptr %18, i64 4
  %51 = load i32, ptr %50, align 4
  %52 = tail call ptr @GetForeignDataWrapper(i32 noundef %51) #9
  %53 = call i64 @SysCacheGetAttr(i32 noundef 84, ptr noundef nonnull %42, i16 noundef signext 4, ptr noundef nonnull %5) #9
  %54 = load i8, ptr %5, align 1, !range !4, !noundef !5
  %55 = trunc nuw i8 %54 to i1
  %spec.select = select i1 %55, i64 0, i64 %53
  %56 = load ptr, ptr %47, align 8
  %57 = getelementptr inbounds nuw i8, ptr %52, i64 20
  %58 = load i32, ptr %57, align 4
  %59 = call i64 @transformGenericOptions(i32 noundef 1418, i64 noundef %spec.select, ptr noundef %56, i32 noundef %58)
  %.not40 = icmp eq i64 %59, 0
  br i1 %.not40, label %62, label %60

60:                                               ; preds = %49
  %61 = getelementptr inbounds nuw i8, ptr %2, i64 24
  store i64 %59, ptr %61, align 8
  br label %64

62:                                               ; preds = %49
  %63 = getelementptr inbounds nuw i8, ptr %3, i64 3
  store i8 1, ptr %63, align 1
  br label %64

64:                                               ; preds = %62, %60
  %65 = getelementptr inbounds nuw i8, ptr %4, i64 3
  store i8 1, ptr %65, align 1
  call void @llvm.lifetime.end.p0(i64 1, ptr nonnull %5) #9
  br label %66

66:                                               ; preds = %64, %46
  %67 = getelementptr inbounds nuw i8, ptr %8, i64 64
  %68 = load ptr, ptr %67, align 8
  %69 = call ptr @heap_modify_tuple(ptr noundef nonnull %42, ptr noundef %68, ptr noundef nonnull %2, ptr noundef nonnull %3, ptr noundef nonnull %4) #9
  %70 = getelementptr inbounds nuw i8, ptr %69, i64 4
  call void @CatalogTupleUpdate(ptr noundef %8, ptr noundef nonnull %70, ptr noundef %69) #9
  %71 = load ptr, ptr @object_access_hook, align 8
  %.not41 = icmp eq ptr %71, null
  br i1 %.not41, label %73, label %72

72:                                               ; preds = %66
  call void @RunObjectPostAlterHook(i32 noundef 1418, i32 noundef %22, i32 noundef 0, i32 noundef 0, i1 noundef zeroext false) #9
  br label %73

73:                                               ; preds = %66, %72
  call void @heap_freetuple(ptr noundef nonnull %69) #9
  call void @table_close(ptr noundef nonnull %8, i32 noundef 3) #9
  call void @llvm.lifetime.end.p0(i64 4, ptr nonnull %4) #9
  call void @llvm.lifetime.end.p0(i64 4, ptr nonnull %3) #9
  call void @llvm.lifetime.end.p0(i64 32, ptr nonnull %2) #9
  %.sroa.233.0.insert.shift = shl nuw i64 %41, 32
  %.sroa.032.0.insert.insert = or disjoint i64 %.sroa.233.0.insert.shift, 1418
  %.fca.0.insert = insertvalue { i64, i32 } poison, i64 %.sroa.032.0.insert.insert, 0
  %.fca.1.insert = insertvalue { i64, i32 } %.fca.0.insert, i32 0, 1
  ret { i64, i32 } %.fca.1.insert
}